target datalayout = "e-m:e-p270:32:32-p271:32:32-p272:64:64-i64:64-i128:128-f80:128-n8:16:32:64-S128"
target triple = "x86_64-pc-linux-gnu"

%struct.AVFormatContext = type { ptr, ptr, ptr, ptr, ptr, i32, i32, ptr, i32, ptr, i32, ptr, ptr, i64, i64, i64, i32, i32, i32, i64, i64, ptr, i32, i32, ptr, i32, i32, i32, i32, ptr, i64, i32, i32, %struct.AVIOInterruptCB, i32, i32, i32, i32, i64, i32, i32, i32, i32, i32, i32, i32, i32, i32, i32, i32, i32, i64, i32, i32, i32, i32, i32, ptr, ptr, ptr, ptr, i32, ptr, ptr, ptr, ptr, i32, ptr, ptr, i64, ptr, ptr, ptr, i64 }
%struct.AVIOInterruptCB = type { ptr, ptr }
%struct.AVStream = type { ptr, i32, i32, ptr, ptr, %struct.AVRational, i64, i64, i64, i32, i32, %struct.AVRational, ptr, %struct.AVRational, %struct.AVPacket, i32, %struct.AVRational, i32 }
%struct.AVPacket = type { ptr, i64, i64, ptr, i32, i32, i32, ptr, i32, i64, i64, ptr, ptr, %struct.AVRational }
%struct.AVRational = type { i32, i32 }
%struct.AVCodecParameters = type { i32, i32, i32, ptr, i32, ptr, i32, i32, i64, i32, i32, i32, i32, i32, i32, %struct.AVRational, %struct.AVRational, i32, i32, i32, i32, i32, i32, i32, %struct.AVChannelLayout, i32, i32, i32, i32, i32, i32 }
%struct.AVChannelLayout = type { i32, i32, %union.anon.0, ptr }
%union.anon.0 = type { i64 }
%struct.TtyDemuxContext = type { ptr, i32, i64, i32, i32, %struct.AVRational }
%struct.AVIOContext = type { ptr, ptr, i32, ptr, ptr, ptr, ptr, ptr, ptr, i64, i32, i32, i32, i32, i32, i64, ptr, ptr, ptr, ptr, i32, i32, ptr, ptr, ptr, i32, ptr, i64, i64 }

@.str.11 = private unnamed_addr constant [9 x i8] c"filename\00", align 1
@.str.12 = private unnamed_addr constant [6 x i8] c"title\00", align 1

; Function Attrs: nounwind uwtable
define internal i32 @efi_read(ptr noundef %0, i64 noundef %1) #0 {
  %3 = alloca i32, align 4
  %4 = alloca ptr, align 8
  %5 = alloca i64, align 8
  %6 = alloca ptr, align 8
  %7 = alloca ptr, align 8
  %8 = alloca [37 x i8], align 16
  %9 = alloca i32, align 4
  %10 = alloca i32, align 4
  store ptr %0, ptr %4, align 8, !tbaa !20
  store i64 %1, ptr %5, align 8, !tbaa !65
  call void @llvm.lifetime.start.p0(i64 8, ptr %6) #6
  %11 = load ptr, ptr %4, align 8, !tbaa !20
  %12 = getelementptr inbounds nuw %struct.AVFormatContext, ptr %11, i32 0, i32 3
  %13 = load ptr, ptr %12, align 8, !tbaa !22
  store ptr %13, ptr %6, align 8, !tbaa !37
  call void @llvm.lifetime.start.p0(i64 8, ptr %7) #6
  %14 = load ptr, ptr %4, align 8, !tbaa !20
  %15 = getelementptr inbounds nuw %struct.AVFormatContext, ptr %14, i32 0, i32 4
  %16 = load ptr, ptr %15, align 8, !tbaa !62
  store ptr %16, ptr %7, align 8, !tbaa !77
  call void @llvm.lifetime.start.p0(i64 37, ptr %8) #6
  call void @llvm.lifetime.start.p0(i64 4, ptr %9) #6
  %17 = load ptr, ptr %7, align 8, !tbaa !77
  %18 = load i64, ptr %5, align 8, !tbaa !65
  %19 = call i64 @avio_seek(ptr noundef %17, i64 noundef %18, i32 noundef 0)
  %20 = load ptr, ptr %7, align 8, !tbaa !77
  %21 = call i32 @avio_r8(ptr noundef %20)
  %22 = icmp ne i32 %21, 26
  br i1 %22, label %23, label %24

23:                                               ; preds = %2
  store i32 -1, ptr %3, align 4
  store i32 1, ptr %10, align 4
  br label %72

24:                                               ; preds = %2
  %25 = load ptr, ptr %7, align 8, !tbaa !77
  %26 = call i32 @avio_r8(ptr noundef %25)
  store i32 %26, ptr %9, align 4, !tbaa !9
  %27 = load i32, ptr %9, align 4, !tbaa !9
  %28 = icmp slt i32 %27, 1
  br i1 %28, label %32, label %29

29:                                               ; preds = %24
  %30 = load i32, ptr %9, align 4, !tbaa !9
  %31 = icmp sgt i32 %30, 12
  br i1 %31, label %32, label %33

32:                                               ; preds = %29, %24
  store i32 -1, ptr %3, align 4
  store i32 1, ptr %10, align 4
  br label %72

33:                                               ; preds = %29
  %34 = load ptr, ptr %7, align 8, !tbaa !77
  %35 = getelementptr inbounds [37 x i8], ptr %8, i64 0, i64 0
  %36 = call i32 @avio_read(ptr noundef %34, ptr noundef %35, i32 noundef 12)
  %37 = icmp eq i32 %36, 12
  br i1 %37, label %38, label %46

38:                                               ; preds = %33
  %39 = load i32, ptr %9, align 4, !tbaa !9
  %40 = sext i32 %39 to i64
  %41 = getelementptr inbounds [37 x i8], ptr %8, i64 0, i64 %40
  store i8 0, ptr %41, align 1, !tbaa !15
  %42 = load ptr, ptr %4, align 8, !tbaa !20
  %43 = getelementptr inbounds nuw %struct.AVFormatContext, ptr %42, i32 0, i32 29
  %44 = getelementptr inbounds [37 x i8], ptr %8, i64 0, i64 0
  %45 = call i32 @av_dict_set(ptr noundef %43, ptr noundef @.str.11, ptr noundef %44, i32 noundef 0)
  br label %46

46:                                               ; preds = %38, %33
  %47 = load ptr, ptr %7, align 8, !tbaa !77
  %48 = call i32 @avio_r8(ptr noundef %47)
  store i32 %48, ptr %9, align 4, !tbaa !9
  %49 = load i32, ptr %9, align 4, !tbaa !9
  %50 = icmp slt i32 %49, 1
  br i1 %50, label %54, label %51

51:                                               ; preds = %46
  %52 = load i32, ptr %9, align 4, !tbaa !9
  %53 = icmp sgt i32 %52, 36
  br i1 %53, label %54, label %55

54:                                               ; preds = %51, %46
  store i32 -1, ptr %3, align 4
  store i32 1, ptr %10, align 4
  br label %72

55:                                               ; preds = %51
  %56 = load ptr, ptr %7, align 8, !tbaa !77
  %57 = getelementptr inbounds [37 x i8], ptr %8, i64 0, i64 0
  %58 = call i32 @avio_read(ptr noundef %56, ptr noundef %57, i32 noundef 36)
  %59 = icmp eq i32 %58, 36
  br i1 %59, label %60, label %68

60:                                               ; preds = %55
  %61 = load i32, ptr %9, align 4, !tbaa !9
  %62 = sext i32 %61 to i64
  %63 = getelementptr inbounds [37 x i8], ptr %8, i64 0, i64 %62
  store i8 0, ptr %63, align 1, !tbaa !15
  %64 = load ptr, ptr %4, align 8, !tbaa !20
  %65 = getelementptr inbounds nuw %struct.AVFormatContext, ptr %64, i32 0, i32 29
  %66 = getelementptr inbounds [37 x i8], ptr %8, i64 0, i64 0
  %67 = call i32 @av_dict_set(ptr noundef %65, ptr noundef @.str.12, ptr noundef %66, i32 noundef 0)
  br label %68

68:                                               ; preds = %60, %55
  %69 = load i64, ptr %5, align 8, !tbaa !65
  %70 = load ptr, ptr %6, align 8, !tbaa !37
  %71 = getelementptr inbounds nuw %struct.TtyDemuxContext, ptr %70, i32 0, i32 2
  store i64 %69, ptr %71, align 8, !tbaa !66
  store i32 0, ptr %3, align 4
  store i32 1, ptr %10, align 4
  br label %72

72:                                               ; preds = %68, %54, %32, %23
  call void @llvm.lifetime.end.p0(i64 4, ptr %9) #6
  call void @llvm.lifetime.end.p0(i64 37, ptr %8) #6
  call void @llvm.lifetime.end.p0(i64 8, ptr %7) #6
  call void @llvm.lifetime.end.p0(i64 8, ptr %6) #6
  %73 = load i32, ptr %3, align 4
  ret i32 %73
}

; Function Attrs: inlinehint nounwind uwtable
define internal double @av_q2d(i64 %0) #4 {
  %2 = alloca %struct.AVRational, align 4
  store i64 %0, ptr %2, align 4
  %3 = getelementptr inbounds nuw %struct.AVRational, ptr %2, i32 0, i32 0
  %4 = load i32, ptr %3, align 4, !tbaa !75
  %5 = sitofp i32 %4 to double
  %6 = getelementptr inbounds nuw %struct.AVRational, ptr %2, i32 0, i32 1
  %7 = load i32, ptr %6, align 4, !tbaa !76
  %8 = sitofp i32 %7 to double
  %9 = fdiv nsz double %5, %8
  ret double %9
}

; Function Attrs: nounwind uwtable
define internal i32 @read_header(ptr noundef %0) #0 {
  %2 = alloca ptr, align 8
  %3 = alloca ptr, align 8
  %4 = alloca i32, align 4
  %5 = alloca ptr, align 8
  %6 = alloca i64, align 8
  store ptr %0, ptr %2, align 8, !tbaa !20
  call void @llvm.lifetime.start.p0(i64 8, ptr %3) #6
  %7 = load ptr, ptr %2, align 8, !tbaa !20
  %8 = getelementptr inbounds nuw %struct.AVFormatContext, ptr %7, i32 0, i32 3
  %9 = load ptr, ptr %8, align 8, !tbaa !22
  store ptr %9, ptr %3, align 8, !tbaa !37
  call void @llvm.lifetime.start.p0(i64 4, ptr %4) #6
  store i32 0, ptr %4, align 4, !tbaa !9
  call void @llvm.lifetime.start.p0(i64 8, ptr %5) #6
  %10 = load ptr, ptr %2, align 8, !tbaa !20
  %11 = call ptr @avformat_new_stream(ptr noundef %10, ptr noundef null)
  store ptr %11, ptr %5, align 8, !tbaa !39
  %12 = load ptr, ptr %5, align 8, !tbaa !39
  %13 = icmp ne ptr %12, null
  br i1 %13, label %15, label %14

14:                                               ; preds = %1
  store i32 -12, ptr %4, align 4, !tbaa !9
  br label %134

15:                                               ; preds = %1
  %16 = load ptr, ptr %5, align 8, !tbaa !39
  %17 = getelementptr inbounds nuw %struct.AVStream, ptr %16, i32 0, i32 3
  %18 = load ptr, ptr %17, align 8, !tbaa !41
  %19 = getelementptr inbounds nuw %struct.AVCodecParameters, ptr %18, i32 0, i32 2
  store i32 0, ptr %19, align 8, !tbaa !48
  %20 = load ptr, ptr %5, align 8, !tbaa !39
  %21 = getelementptr inbounds nuw %struct.AVStream, ptr %20, i32 0, i32 3
  %22 = load ptr, ptr %21, align 8, !tbaa !41
  %23 = getelementptr inbounds nuw %struct.AVCodecParameters, ptr %22, i32 0, i32 0
  store i32 0, ptr %23, align 8, !tbaa !51
  %24 = load ptr, ptr %5, align 8, !tbaa !39
  %25 = getelementptr inbounds nuw %struct.AVStream, ptr %24, i32 0, i32 3
  %26 = load ptr, ptr %25, align 8, !tbaa !41
  %27 = getelementptr inbounds nuw %struct.AVCodecParameters, ptr %26, i32 0, i32 1
  store i32 141, ptr %27, align 4, !tbaa !52
  %28 = load ptr, ptr %3, align 8, !tbaa !37
  %29 = getelementptr inbounds nuw %struct.TtyDemuxContext, ptr %28, i32 0, i32 3
  %30 = load i32, ptr %29, align 8, !tbaa !53
  %31 = load ptr, ptr %5, align 8, !tbaa !39
  %32 = getelementptr inbounds nuw %struct.AVStream, ptr %31, i32 0, i32 3
  %33 = load ptr, ptr %32, align 8, !tbaa !41
  %34 = getelementptr inbounds nuw %struct.AVCodecParameters, ptr %33, i32 0, i32 13
  store i32 %30, ptr %34, align 8, !tbaa !55
  %35 = load ptr, ptr %3, align 8, !tbaa !37
  %36 = getelementptr inbounds nuw %struct.TtyDemuxContext, ptr %35, i32 0, i32 4
  %37 = load i32, ptr %36, align 4, !tbaa !56
  %38 = load ptr, ptr %5, align 8, !tbaa !39
  %39 = getelementptr inbounds nuw %struct.AVStream, ptr %38, i32 0, i32 3
  %40 = load ptr, ptr %39, align 8, !tbaa !41
  %41 = getelementptr inbounds nuw %struct.AVCodecParameters, ptr %40, i32 0, i32 14
  store i32 %37, ptr %41, align 4, !tbaa !57
  %42 = load ptr, ptr %5, align 8, !tbaa !39
  %43 = load ptr, ptr %3, align 8, !tbaa !37
  %44 = getelementptr inbounds nuw %struct.TtyDemuxContext, ptr %43, i32 0, i32 5
  %45 = getelementptr inbounds nuw %struct.AVRational, ptr %44, i32 0, i32 1
  %46 = load i32, ptr %45, align 4, !tbaa !58
  %47 = load ptr, ptr %3, align 8, !tbaa !37
  %48 = getelementptr inbounds nuw %struct.TtyDemuxContext, ptr %47, i32 0, i32 5
  %49 = getelementptr inbounds nuw %struct.AVRational, ptr %48, i32 0, i32 0
  %50 = load i32, ptr %49, align 8, !tbaa !59
  call void @avpriv_set_pts_info(ptr noundef %42, i32 noundef 60, i32 noundef %46, i32 noundef %50)
  %51 = load ptr, ptr %5, align 8, !tbaa !39
  %52 = getelementptr inbounds nuw %struct.AVStream, ptr %51, i32 0, i32 13
  %53 = load ptr, ptr %3, align 8, !tbaa !37
  %54 = getelementptr inbounds nuw %struct.TtyDemuxContext, ptr %53, i32 0, i32 5
  call void @llvm.memcpy.p0.p0.i64(ptr align 8 %52, ptr align 8 %54, i64 8, i1 false), !tbaa.struct !60
  %55 = load ptr, ptr %5, align 8, !tbaa !39
  %56 = getelementptr inbounds nuw %struct.AVStream, ptr %55, i32 0, i32 5
  %57 = load i64, ptr %56, align 8
  %58 = call nsz double @av_q2d(i64 %57)
  %59 = load ptr, ptr %3, align 8, !tbaa !37
  %60 = getelementptr inbounds nuw %struct.TtyDemuxContext, ptr %59, i32 0, i32 1
  %61 = load i32, ptr %60, align 8, !tbaa !61
  %62 = sitofp i32 %61 to double
  %63 = fmul nsz double %58, %62
  %64 = fcmp nsz ogt double %63, 1.000000e+00
  br i1 %64, label %65, label %75

65:                                               ; preds = %15
  %66 = load ptr, ptr %5, align 8, !tbaa !39
  %67 = getelementptr inbounds nuw %struct.AVStream, ptr %66, i32 0, i32 5
  %68 = load i64, ptr %67, align 8
  %69 = call nsz double @av_q2d(i64 %68)
  %70 = load ptr, ptr %3, align 8, !tbaa !37
  %71 = getelementptr inbounds nuw %struct.TtyDemuxContext, ptr %70, i32 0, i32 1
  %72 = load i32, ptr %71, align 8, !tbaa !61
  %73 = sitofp i32 %72 to double
  %74 = fmul nsz double %69, %73
  br label %76

75:                                               ; preds = %15
  br label %76

76:                                               ; preds = %75, %65
  %77 = phi nsz double [ %74, %65 ], [ 1.000000e+00, %75 ]
  %78 = fptosi double %77 to i32
  %79 = load ptr, ptr %3, align 8, !tbaa !37
  %80 = getelementptr inbounds nuw %struct.TtyDemuxContext, ptr %79, i32 0, i32 1
  store i32 %78, ptr %80, align 8, !tbaa !61
  %81 = load ptr, ptr %2, align 8, !tbaa !20
  %82 = getelementptr inbounds nuw %struct.AVFormatContext, ptr %81, i32 0, i32 4
  %83 = load ptr, ptr %82, align 8, !tbaa !62
  %84 = getelementptr inbounds nuw %struct.AVIOContext, ptr %83, i32 0, i32 20
  %85 = load i32, ptr %84, align 8, !tbaa !63
  %86 = and i32 %85, 1
  %87 = icmp ne i32 %86, 0
  br i1 %87, label %88, label %133

88:                                               ; preds = %76
  call void @llvm.lifetime.start.p0(i64 8, ptr %6) #6
  %89 = load ptr, ptr %2, align 8, !tbaa !20
  %90 = getelementptr inbounds nuw %struct.AVFormatContext, ptr %89, i32 0, i32 4
  %91 = load ptr, ptr %90, align 8, !tbaa !62
  %92 = call i64 @avio_size(ptr noundef %91)
  store i64 %92, ptr %6, align 8, !tbaa !65
  %93 = load i64, ptr %6, align 8, !tbaa !65
  %94 = icmp sgt i64 %93, 0
  br i1 %94, label %95, label %132

95:                                               ; preds = %88
  %96 = load i64, ptr %6, align 8, !tbaa !65
  %97 = load ptr, ptr %3, align 8, !tbaa !37
  %98 = getelementptr inbounds nuw %struct.TtyDemuxContext, ptr %97, i32 0, i32 2
  store i64 %96, ptr %98, align 8, !tbaa !66
  %99 = load ptr, ptr %3, align 8, !tbaa !37
  %100 = getelementptr inbounds nuw %struct.TtyDemuxContext, ptr %99, i32 0, i32 2
  %101 = load i64, ptr %100, align 8, !tbaa !66
  %102 = load ptr, ptr %3, align 8, !tbaa !37
  %103 = getelementptr inbounds nuw %struct.TtyDemuxContext, ptr %102, i32 0, i32 1
  %104 = load i32, ptr %103, align 8, !tbaa !61
  %105 = sext i32 %104 to i64
  %106 = add i64 %101, %105
  %107 = sub i64 %106, 1
  %108 = load ptr, ptr %3, align 8, !tbaa !37
  %109 = getelementptr inbounds nuw %struct.TtyDemuxContext, ptr %108, i32 0, i32 1
  %110 = load i32, ptr %109, align 8, !tbaa !61
  %111 = sext i32 %110 to i64
  %112 = udiv i64 %107, %111
  %113 = load ptr, ptr %5, align 8, !tbaa !39
  %114 = getelementptr inbounds nuw %struct.AVStream, ptr %113, i32 0, i32 7
  store i64 %112, ptr %114, align 8, !tbaa !67
  %115 = load ptr, ptr %2, align 8, !tbaa !20
  %116 = load ptr, ptr %3, align 8, !tbaa !37
  %117 = getelementptr inbounds nuw %struct.TtyDemuxContext, ptr %116, i32 0, i32 2
  %118 = call i32 @ff_sauce_read(ptr noundef %115, ptr noundef %117, ptr noundef null, i32 noundef 0)
  %119 = icmp slt i32 %118, 0
  br i1 %119, label %120, label %127

120:                                              ; preds = %95
  %121 = load ptr, ptr %2, align 8, !tbaa !20
  %122 = load ptr, ptr %3, align 8, !tbaa !37
  %123 = getelementptr inbounds nuw %struct.TtyDemuxContext, ptr %122, i32 0, i32 2
  %124 = load i64, ptr %123, align 8, !tbaa !66
  %125 = sub i64 %124, 51
  %126 = call i32 @efi_read(ptr noundef %121, i64 noundef %125)
  br label %127

127:                                              ; preds = %120, %95
  %128 = load ptr, ptr %2, align 8, !tbaa !20
  %129 = getelementptr inbounds nuw %struct.AVFormatContext, ptr %128, i32 0, i32 4
  %130 = load ptr, ptr %129, align 8, !tbaa !62
  %131 = call i64 @avio_seek(ptr noundef %130, i64 noundef 0, i32 noundef 0)
  br label %132

132:                                              ; preds = %127, %88
  call void @llvm.lifetime.end.p0(i64 8, ptr %6) #6
  br label %133

133:                                              ; preds = %132, %76
  br label %134

134:                                              ; preds = %133, %14
  %135 = load i32, ptr %4, align 4, !tbaa !9
  call void @llvm.lifetime.end.p0(i64 8, ptr %5) #6
  call void @llvm.lifetime.end.p0(i64 4, ptr %4) #6
  call void @llvm.lifetime.end.p0(i64 8, ptr %3) #6
  ret i32 %135
}