; Function Attrs: nounwind uwtable
define internal range(i32 -12, 1) i32 @read_header(ptr noundef %0) #0 {
  %2 = alloca [37 x i8], align 16
  %3 = getelementptr inbounds nuw i8, ptr %0, i64 24
  %4 = load ptr, ptr %3, align 8, !tbaa !17
  %5 = tail call ptr @avformat_new_stream(ptr noundef %0, ptr noundef null) #4
  %.not = icmp eq ptr %5, null
  br i1 %.not, label %87, label %6

6:                                                ; preds = %1
  %7 = getelementptr inbounds nuw i8, ptr %5, i64 16
  %8 = load ptr, ptr %7, align 8, !tbaa !32
  %9 = getelementptr inbounds nuw i8, ptr %8, i64 8
  store i32 0, ptr %9, align 8, !tbaa !39
  store i32 0, ptr %8, align 8, !tbaa !42
  %10 = getelementptr inbounds nuw i8, ptr %8, i64 4
  store i32 141, ptr %10, align 4, !tbaa !43
  %11 = getelementptr inbounds nuw i8, ptr %4, i64 24
  %12 = load i32, ptr %11, align 8, !tbaa !44
  %13 = getelementptr inbounds nuw i8, ptr %8, i64 72
  store i32 %12, ptr %13, align 8, !tbaa !46
  %14 = getelementptr inbounds nuw i8, ptr %4, i64 28
  %15 = load i32, ptr %14, align 4, !tbaa !47
  %16 = getelementptr inbounds nuw i8, ptr %8, i64 76
  store i32 %15, ptr %16, align 4, !tbaa !48
  %17 = getelementptr inbounds nuw i8, ptr %4, i64 32
  %18 = getelementptr inbounds nuw i8, ptr %4, i64 36
  %19 = load i32, ptr %18, align 4, !tbaa !49
  %20 = load i32, ptr %17, align 8, !tbaa !50
  tail call void @avpriv_set_pts_info(ptr noundef nonnull %5, i32 noundef 60, i32 noundef %19, i32 noundef %20) #4
  %21 = getelementptr inbounds nuw i8, ptr %5, i64 88
  %22 = load i64, ptr %17, align 8
  store i64 %22, ptr %21, align 8
  %23 = getelementptr inbounds nuw i8, ptr %5, i64 32
  %24 = load i64, ptr %23, align 8
  %.sroa.0.0.extract.trunc.i = trunc i64 %24 to i32
  %.sroa.2.0.extract.shift.i = lshr i64 %24, 32
  %.sroa.2.0.extract.trunc.i = trunc nuw i64 %.sroa.2.0.extract.shift.i to i32
  %25 = sitofp i32 %.sroa.0.0.extract.trunc.i to double
  %26 = sitofp i32 %.sroa.2.0.extract.trunc.i to double
  %27 = fdiv nsz double %25, %26
  %28 = getelementptr inbounds nuw i8, ptr %4, i64 8
  %29 = load i32, ptr %28, align 8, !tbaa !51
  %30 = sitofp i32 %29 to double
  %31 = fmul nsz double %27, %30
  %32 = fcmp nsz ogt double %31, 1.000000e+00
  %33 = select i1 %32, double %31, double 1.000000e+00
  %34 = fptosi double %33 to i32
  store i32 %34, ptr %28, align 8, !tbaa !51
  %35 = getelementptr inbounds nuw i8, ptr %0, i64 32
  %36 = load ptr, ptr %35, align 8, !tbaa !52
  %37 = getelementptr inbounds nuw i8, ptr %36, i64 144
  %38 = load i32, ptr %37, align 8, !tbaa !53
  %39 = and i32 %38, 1
  %.not36 = icmp eq i32 %39, 0
  br i1 %.not36, label %87, label %40

40:                                               ; preds = %6
  %41 = tail call i64 @avio_size(ptr noundef nonnull %36) #4
  %42 = icmp sgt i64 %41, 0
  br i1 %42, label %43, label %87

43:                                               ; preds = %40
  %44 = getelementptr inbounds nuw i8, ptr %4, i64 16
  store i64 %41, ptr %44, align 8, !tbaa !55
  %45 = load i32, ptr %28, align 8, !tbaa !51
  %46 = sext i32 %45 to i64
  %47 = add nsw i64 %41, -1
  %48 = add i64 %47, %46
  %49 = udiv i64 %48, %46
  %50 = getelementptr inbounds nuw i8, ptr %5, i64 48
  store i64 %49, ptr %50, align 8, !tbaa !56
  %51 = tail call i32 @ff_sauce_read(ptr noundef nonnull %0, ptr noundef nonnull %44, ptr noundef null, i32 noundef 0) #4
  %52 = icmp slt i32 %51, 0
  br i1 %52, label %53, label %84

53:                                               ; preds = %43
  %54 = load i64, ptr %44, align 8, !tbaa !55
  %55 = add i64 %54, -51
  %56 = load ptr, ptr %3, align 8, !tbaa !17
  %57 = load ptr, ptr %35, align 8, !tbaa !52
  call void @llvm.lifetime.start.p0(i64 37, ptr nonnull %2) #4
  %58 = tail call i64 @avio_seek(ptr noundef %57, i64 noundef %55, i32 noundef 0) #4
  %59 = tail call i32 @avio_r8(ptr noundef %57) #4
  %.not.i = icmp eq i32 %59, 26
  br i1 %.not.i, label %60, label %efi_read.exit

60:                                               ; preds = %53
  %61 = tail call i32 @avio_r8(ptr noundef %57) #4
  %62 = add i32 %61, -13
  %or.cond.i = icmp ult i32 %62, -12
  br i1 %or.cond.i, label %efi_read.exit, label %63

63:                                               ; preds = %60
  %64 = call i32 @avio_read(ptr noundef %57, ptr noundef nonnull %2, i32 noundef 12) #4
  %65 = icmp eq i32 %64, 12
  br i1 %65, label %66, label %71

66:                                               ; preds = %63
  %67 = zext nneg i32 %61 to i64
  %68 = getelementptr inbounds nuw [37 x i8], ptr %2, i64 0, i64 %67
  store i8 0, ptr %68, align 1, !tbaa !12
  %69 = getelementptr inbounds nuw i8, ptr %0, i64 192
  %70 = call i32 @av_dict_set(ptr noundef nonnull %69, ptr noundef nonnull @.str.11, ptr noundef nonnull %2, i32 noundef 0) #4
  br label %71

71:                                               ; preds = %66, %63
  %72 = call i32 @avio_r8(ptr noundef %57) #4
  %73 = add i32 %72, -37
  %or.cond3.i = icmp ult i32 %73, -36
  br i1 %or.cond3.i, label %efi_read.exit, label %74

74:                                               ; preds = %71
  %75 = call i32 @avio_read(ptr noundef %57, ptr noundef nonnull %2, i32 noundef 36) #4
  %76 = icmp eq i32 %75, 36
  br i1 %76, label %77, label %82

77:                                               ; preds = %74
  %78 = zext nneg i32 %72 to i64
  %79 = getelementptr inbounds nuw [37 x i8], ptr %2, i64 0, i64 %78
  store i8 0, ptr %79, align 1, !tbaa !12
  %80 = getelementptr inbounds nuw i8, ptr %0, i64 192
  %81 = call i32 @av_dict_set(ptr noundef nonnull %80, ptr noundef nonnull @.str.12, ptr noundef nonnull %2, i32 noundef 0) #4
  br label %82

82:                                               ; preds = %77, %74
  %83 = getelementptr inbounds nuw i8, ptr %56, i64 16
  store i64 %55, ptr %83, align 8, !tbaa !55
  br label %efi_read.exit

efi_read.exit:                                    ; preds = %53, %60, %71, %82
  call void @llvm.lifetime.end.p0(i64 37, ptr nonnull %2) #4
  br label %84

84:                                               ; preds = %efi_read.exit, %43
  %85 = load ptr, ptr %35, align 8, !tbaa !52
  %86 = call i64 @avio_seek(ptr noundef %85, i64 noundef 0, i32 noundef 0) #4
  br label %87

87:                                               ; preds = %40, %84, %1, %6
  %.0 = phi i32 [ 0, %6 ], [ -12, %1 ], [ 0, %84 ], [ 0, %40 ]
  ret i32 %.0
}